target datalayout = "e-m:e-p270:32:32-p271:32:32-p272:64:64-i64:64-i128:128-f80:128-n8:16:32:64-S128"
target triple = "x86_64-pc-linux-gnu"

; Function Attrs: nounwind uwtable
define internal i32 @cmp(ptr noundef %0, ptr noundef %1, ptr noundef %2) #0 {
  %4 = alloca i32, align 4
  %5 = alloca ptr, align 8
  %6 = alloca ptr, align 8
  %7 = alloca ptr, align 8
  %8 = alloca ptr, align 8
  %9 = alloca ptr, align 8
  %10 = alloca ptr, align 8
  %11 = alloca i32, align 4
  store ptr %0, ptr %5, align 8, !tbaa !10
  store ptr %1, ptr %6, align 8, !tbaa !10
  store ptr %2, ptr %7, align 8, !tbaa !10
  call void @llvm.lifetime.start.p0(i64 8, ptr %8) #12
  %12 = load ptr, ptr %5, align 8, !tbaa !10
  store ptr %12, ptr %8, align 8, !tbaa !13
  call void @llvm.lifetime.start.p0(i64 8, ptr %9) #12
  %13 = load ptr, ptr %6, align 8, !tbaa !10
  store ptr %13, ptr %9, align 8, !tbaa !13
  call void @llvm.lifetime.start.p0(i64 8, ptr %10) #12
  %14 = load ptr, ptr %7, align 8, !tbaa !10
  store ptr %14, ptr %10, align 8, !tbaa !3
  %15 = load ptr, ptr %10, align 8, !tbaa !3
  %16 = load ptr, ptr %8, align 8, !tbaa !13
  %17 = load i64, ptr %16, align 8, !tbaa !11
  %18 = getelementptr inbounds nuw double, ptr %15, i64 %17
  %19 = load double, ptr %18, align 8, !tbaa !24
  %20 = load ptr, ptr %10, align 8, !tbaa !3
  %21 = load ptr, ptr %9, align 8, !tbaa !13
  %22 = load i64, ptr %21, align 8, !tbaa !11
  %23 = getelementptr inbounds nuw double, ptr %20, i64 %22
  %24 = load double, ptr %23, align 8, !tbaa !24
  %25 = fcmp olt double %19, %24
  br i1 %25, label %26, label %27

26:                                               ; preds = %3
  store i32 -1, ptr %4, align 4
  store i32 1, ptr %11, align 4
  br label %41

27:                                               ; preds = %3
  %28 = load ptr, ptr %10, align 8, !tbaa !3
  %29 = load ptr, ptr %8, align 8, !tbaa !13
  %30 = load i64, ptr %29, align 8, !tbaa !11
  %31 = getelementptr inbounds nuw double, ptr %28, i64 %30
  %32 = load double, ptr %31, align 8, !tbaa !24
  %33 = load ptr, ptr %10, align 8, !tbaa !3
  %34 = load ptr, ptr %9, align 8, !tbaa !13
  %35 = load i64, ptr %34, align 8, !tbaa !11
  %36 = getelementptr inbounds nuw double, ptr %33, i64 %35
  %37 = load double, ptr %36, align 8, !tbaa !24
  %38 = fcmp ogt double %32, %37
  br i1 %38, label %39, label %40

39:                                               ; preds = %27
  store i32 1, ptr %4, align 4
  store i32 1, ptr %11, align 4
  br label %41

40:                                               ; preds = %27
  store i32 0, ptr %4, align 4
  store i32 1, ptr %11, align 4
  br label %41

41:                                               ; preds = %40, %39, %26
  call void @llvm.lifetime.end.p0(i64 8, ptr %10) #12
  call void @llvm.lifetime.end.p0(i64 8, ptr %9) #12
  call void @llvm.lifetime.end.p0(i64 8, ptr %8) #12
  %42 = load i32, ptr %4, align 4
  ret i32 %42
}