; Function Attrs: mustprogress nofree norecurse nosync nounwind willreturn memory(argmem: read) uwtable
define internal range(i32 -1, 2) i32 @cmp(ptr noundef readonly captures(none) %0, ptr noundef readonly captures(none) %1, ptr noundef readonly captures(none) %2) #3 {
  %4 = load i64, ptr %0, align 8, !tbaa !12
  %5 = getelementptr inbounds nuw double, ptr %2, i64 %4
  %6 = load double, ptr %5, align 8, !tbaa !17
  %7 = load i64, ptr %1, align 8, !tbaa !12
  %8 = getelementptr inbounds nuw double, ptr %2, i64 %7
  %9 = load double, ptr %8, align 8, !tbaa !17
  %10 = fcmp olt double %6, %9
  %11 = fcmp ogt double %6, %9
  %. = zext i1 %11 to i32
  %.0 = select i1 %10, i32 -1, i32 %.
  ret i32 %.0
}